; Function Attrs: nounwind uwtable
define internal i32 @ga_traverse(ptr noundef readonly captures(none) %0, ptr noundef readonly captures(none) %1, ptr noundef %2) #0 {
  %4 = getelementptr inbounds nuw i8, ptr %0, i64 16
  %5 = load ptr, ptr %4, align 8, !tbaa !33
  %.not = icmp eq ptr %5, null
  br i1 %.not, label %8, label %6

6:                                                ; preds = %3
  %7 = tail call i32 %1(ptr noundef nonnull %5, ptr noundef %2) #5
  %.not31 = icmp eq i32 %7, 0
  br i1 %.not31, label %8, label %19

8:                                                ; preds = %3, %6
  %9 = getelementptr inbounds nuw i8, ptr %0, i64 24
  %10 = load ptr, ptr %9, align 8, !tbaa !34
  %.not32 = icmp eq ptr %10, null
  br i1 %.not32, label %13, label %11

11:                                               ; preds = %8
  %12 = tail call i32 %1(ptr noundef nonnull %10, ptr noundef %2) #5
  %.not33 = icmp eq i32 %12, 0
  br i1 %.not33, label %13, label %19

13:                                               ; preds = %8, %11
  %14 = getelementptr inbounds nuw i8, ptr %0, i64 32
  %15 = load ptr, ptr %14, align 8, !tbaa !47
  %.not34 = icmp eq ptr %15, null
  br i1 %.not34, label %18, label %16

16:                                               ; preds = %13
  %17 = tail call i32 %1(ptr noundef nonnull %15, ptr noundef %2) #5
  %.not35 = icmp eq i32 %17, 0
  br i1 %.not35, label %18, label %19

18:                                               ; preds = %16, %13
  br label %19

19:                                               ; preds = %6, %11, %16, %18
  %.1 = phi i32 [ 0, %18 ], [ %17, %16 ], [ %12, %11 ], [ %7, %6 ]
  ret i32 %.1
}